Certificate:
    Data:
        Version: 3 (0x2)
        Serial Number:
            a9:7b:ed:dc:ce:80:6f:c6
    Signature Algorithm: sha256WithRSAEncryption
        Issuer: C=DE, ST=BAVARIA, O=ROBOBEE, OU=ROBOBEE ECTD-CA, CN=ROBOBEE ECTD-CA/emailAddress=admin@robobee.test
        Validity
            Not Before: Mar 21 08:50:43 2017 GMT
            Not After : Mar 31 08:50:43 2018 GMT
        Subject: C=DE, ST=BAVARIA, L=MUNICH, O=ROBOBEE, OU=ROBOBEE ECTD-CA, CN=client-0/emailAddress=admin@robobee.test
        Subject Public Key Info:
            Public Key Algorithm: rsaEncryption
                Public-Key: (4096 bit)
                Modulus:
                    00:ba:8e:6a:cf:0e:83:c7:10:4a:64:1d:17:10:91:
                    2f:ba:c7:1a:6d:72:dd:07:fe:e0:32:e7:4f:fb:cc:
                    5a:6d:ab:19:c2:cc:4e:3a:d8:97:08:95:cd:1e:66:
                    a1:a5:e5:86:40:ab:5f:02:ef:b9:41:f0:ff:d5:32:
                    e1:b2:f1:6a:b3:aa:2d:d5:a1:e5:c9:2c:e4:6f:c3:
                    2f:c5:65:4d:26:7c:02:5a:5c:f6:30:0c:5a:6b:89:
                    46:86:9e:d3:b6:82:a6:43:93:67:93:52:f0:c6:7b:
                    0b:93:c0:b2:b5:36:7a:62:08:a4:41:08:39:cf:62:
                    db:2c:8e:40:ef:ee:eb:04:16:d5:92:87:4c:db:45:
                    ad:1f:ea:88:fa:ac:ee:88:ab:c2:3a:07:d6:9d:09:
                    43:e2:1a:9a:49:b0:fa:d9:2f:5b:6c:13:46:bd:38:
                    79:1f:74:10:42:e3:51:96:3f:fc:da:3f:0c:fc:18:
                    b8:55:81:7a:49:58:38:d1:04:36:75:0b:98:a8:88:
                    42:40:56:aa:08:ec:b4:24:a5:89:84:67:89:4f:aa:
                    91:84:0b:4a:26:d2:77:14:77:fa:b4:98:2f:47:be:
                    68:4d:a3:14:99:73:f3:b7:cb:0b:93:07:28:2c:9e:
                    78:41:95:f8:25:39:eb:2d:1a:7a:b7:35:2a:84:33:
                    77:6e:96:b0:55:d2:10:b3:27:df:5e:da:0c:1b:f0:
                    67:cd:2c:49:28:38:28:53:d8:5e:4b:88:77:5d:2a:
                    95:28:b8:0b:00:8c:93:4d:f5:c6:dc:4d:09:9a:d5:
                    9d:7a:59:f0:55:21:28:06:74:76:ee:60:a6:78:09:
                    df:6c:06:1a:a3:1a:8e:48:e9:70:1c:02:17:34:36:
                    92:5b:dd:c5:2d:f2:1d:df:bc:68:db:b3:f4:c1:4f:
                    26:49:ab:73:8d:6c:b2:c3:f8:10:51:66:d6:a2:b8:
                    4c:56:bb:e6:9a:e4:5a:41:38:68:d1:2a:22:ee:8b:
                    a4:68:06:ee:5e:ae:bb:4e:ca:0a:45:ed:d5:15:a8:
                    6c:62:d5:e5:43:32:29:87:42:d4:73:2d:82:0d:b8:
                    a9:fc:95:a8:d4:3c:1d:d6:14:4b:93:ca:27:d4:ab:
                    fd:22:b7:b2:47:6a:4c:14:03:cd:4d:0b:80:1c:f5:
                    c5:79:58:42:1c:98:82:26:fc:ff:a2:30:4a:24:f3:
                    a4:5b:80:06:66:33:82:a9:81:ea:94:e6:af:7a:d8:
                    d8:ba:e1:0c:27:c7:b1:fe:d4:e1:1d:89:e9:b3:09:
                    5e:e9:d0:60:a1:75:ed:14:3f:a8:a8:e4:c3:ca:63:
                    0e:c7:ce:c4:a5:34:6d:b2:27:77:31:38:42:60:3d:
                    ca:61:b3
                Exponent: 65537 (0x10001)
        X509v3 extensions:
            X509v3 Basic Constraints: 
                CA:FALSE
            Netscape Cert Type: 
                SSL Client
            Netscape Comment: 
                OpenSSL Generated Client Certificate
            X509v3 Subject Key Identifier: 
                F3:78:61:B5:2A:42:C2:59:7D:63:07:9E:E6:10:FA:EA:CD:D4:FB:FB
            X509v3 Authority Key Identifier: 
                keyid:F6:03:79:E3:F9:3E:8F:E4:1D:87:DF:4D:5D:EF:89:A4:D2:EA:FC:27

            X509v3 Key Usage: 
                Digital Signature, Key Encipherment
            X509v3 Extended Key Usage: 
                TLS Web Client Authentication
    Signature Algorithm: sha256WithRSAEncryption
         c2:98:b4:d0:8a:1e:b3:88:51:62:47:4c:a7:46:2c:cd:e5:e5:
         6e:ff:10:ec:c7:2f:49:c2:da:78:f7:30:5b:e7:3a:dd:25:16:
         a3:05:f4:5c:c6:67:45:cb:7b:c3:b8:ba:41:55:37:92:eb:66:
         f5:97:81:b5:dd:f7:0b:4b:3e:11:d1:e4:40:ae:94:4c:6b:40:
         ee:a2:76:11:a8:0b:a6:12:ec:bc:78:16:23:e4:b1:86:9b:ae:
         3d:70:c0:97:91:64:27:76:25:5e:f1:67:b0:2b:0d:9f:98:0f:
         bc:d6:9a:b8:73:30:00:d3:46:ac:1e:49:da:7c:ac:b6:89:75:
         c0:7d:1f:a4:7c:62:48:1a:6b:d9:16:0f:78:90:ef:56:19:2e:
         30:b7:5f:ae:9c:a8:b4:16:7c:5a:29:74:5e:01:6c:37:15:ac:
         4a:be:27:29:8e:b2:59:61:35:86:bc:cc:9a:7f:f5:31:ce:de:
         76:d9:3f:79:dd:d2:99:61:da:ae:55:5f:e6:57:ea:a6:8a:aa:
         bd:37:4d:b9:ec:c6:e7:12:0b:e7:98:d6:5a:6c:6c:e7:ec:2b:
         f9:33:02:e9:f1:aa:38:4e:c3:70:84:97:62:c0:f2:77:7d:68:
         dd:6d:ca:e3:f2:a1:58:8a:0f:d0:47:0a:55:43:06:d2:81:7a:
         bf:eb:fc:09:a2:e1:7a:dd:52:3c:e4:6c:57:bc:fa:6e:f0:12:
         0e:33:33:42:04:34:77:a1:5b:49:f5:02:d0:84:08:49:7c:42:
         1c:f2:90:69:10:ef:57:21:19:0f:f8:16:14:5a:49:b0:a8:48:
         8f:ea:7d:d3:c1:da:c2:5b:70:b5:10:70:c2:20:57:9e:4c:78:
         b3:b1:eb:dc:45:e8:c0:d4:38:0e:00:cb:38:da:90:db:96:e8:
         33:69:ac:4d:18:b6:2a:6b:84:60:d5:b8:e3:f2:a8:33:63:25:
         f9:6a:7c:10:ea:7d:e5:67:4f:59:34:43:09:87:88:aa:20:66:
         96:2f:81:49:b1:4f:9b:d0:cf:57:10:a5:71:e7:70:ad:be:33:
         df:08:e1:a5:f9:d2:16:be:d5:df:2d:17:ce:28:d2:b5:e9:24:
         dd:4c:4b:58:7b:b2:cf:eb:d3:e3:04:69:39:5c:de:a7:32:6f:
         2d:d1:ba:5c:6f:9d:b8:50:00:88:32:6b:c7:75:0e:0f:8d:6e:
         3e:f7:ce:2e:a5:96:ac:f2:82:3d:52:36:a3:2a:c2:82:63:2f:
         ca:5b:91:25:2a:3c:56:75:80:86:37:de:85:15:65:fc:7f:de:
         1a:c7:db:78:ac:36:29:a7:fc:c9:a4:e5:4a:20:3a:0b:8d:7d:
         fb:76:15:8f:21:1f:6e:1c
-----BEGIN CERTIFICATE-----
MIIGWDCCBECgAwIBAgIJAKl77dzOgG/GMA0GCSqGSIb3DQEBCwUAMIGIMQswCQYD
VQQGEwJERTEQMA4GA1UECAwHQkFWQVJJQTEQMA4GA1UECgwHUk9CT0JFRTEYMBYG
A1UECwwPUk9CT0JFRSBFQ1RELUNBMRgwFgYDVQQDDA9ST0JPQkVFIEVDVEQtQ0Ex
ITAfBgkqhkiG9w0BCQEWEmFkbWluQHJvYm9iZWUudGVzdDAeFw0xNzAzMjEwODUw
NDNaFw0xODAzMzEwODUwNDNaMIGSMQswCQYDVQQGEwJERTEQMA4GA1UECAwHQkFW
QVJJQTEPMA0GA1UEBwwGTVVOSUNIMRAwDgYDVQQKDAdST0JPQkVFMRgwFgYDVQQL
DA9ST0JPQkVFIEVDVEQtQ0ExETAPBgNVBAMMCGNsaWVudC0wMSEwHwYJKoZIhvcN
AQkBFhJhZG1pbkByb2JvYmVlLnRlc3QwggIiMA0GCSqGSIb3DQEBAQUAA4ICDwAw
ggIKAoICAQC6jmrPDoPHEEpkHRcQkS+6xxptct0H/uAy50/7zFptqxnCzE462JcI
lc0eZqGl5YZAq18C77lB8P/VMuGy8Wqzqi3VoeXJLORvwy/FZU0mfAJaXPYwDFpr
iUaGntO2gqZDk2eTUvDGewuTwLK1NnpiCKRBCDnPYtssjkDv7usEFtWSh0zbRa0f
6oj6rO6Iq8I6B9adCUPiGppJsPrZL1tsE0a9OHkfdBBC41GWP/zaPwz8GLhVgXpJ
WDjRBDZ1C5ioiEJAVqoI7LQkpYmEZ4lPqpGEC0om0ncUd/q0mC9HvmhNoxSZc/O3
ywuTBygsnnhBlfglOestGnq3NSqEM3dulrBV0hCzJ99e2gwb8GfNLEkoOChT2F5L
iHddKpUouAsAjJNN9cbcTQma1Z16WfBVISgGdHbuYKZ4Cd9sBhqjGo5I6XAcAhc0
NpJb3cUt8h3fvGjbs/TBTyZJq3ONbLLD+BBRZtaiuExWu+aa5FpBOGjRKiLui6Ro
Bu5errtOygpF7dUVqGxi1eVDMimHQtRzLYINuKn8lajUPB3WFEuTyifUq/0it7JH
akwUA81NC4Ac9cV5WEIcmIIm/P+iMEok86RbgAZmM4KpgeqU5q962Ni64Qwnx7H+
1OEdiemzCV7p0GChde0UP6io5MPKYw7HzsSlNG2yJ3cxOEJgPcphswIDAQABo4G4
MIG1MAkGA1UdEwQCMAAwEQYJYIZIAYb4QgEBBAQDAgeAMDMGCWCGSAGG+EIBDQQm
FiRPcGVuU1NMIEdlbmVyYXRlZCBDbGllbnQgQ2VydGlmaWNhdGUwHQYDVR0OBBYE
FPN4YbUqQsJZfWMHnuYQ+urN1Pv7MB8GA1UdIwQYMBaAFPYDeeP5Po/kHYffTV3v
iaTS6vwnMAsGA1UdDwQEAwIFoDATBgNVHSUEDDAKBggrBgEFBQcDAjANBgkqhkiG
9w0BAQsFAAOCAgEAwpi00Ioes4hRYkdMp0YszeXlbv8Q7McvScLaePcwW+c63SUW
owX0XMZnRct7w7i6QVU3kutm9ZeBtd33C0s+EdHkQK6UTGtA7qJ2EagLphLsvHgW
I+SxhpuuPXDAl5FkJ3YlXvFnsCsNn5gPvNaauHMwANNGrB5J2nystol1wH0fpHxi
SBpr2RYPeJDvVhkuMLdfrpyotBZ8Wil0XgFsNxWsSr4nKY6yWWE1hrzMmn/1Mc7e
dtk/ed3SmWHarlVf5lfqpoqqvTdNuezG5xIL55jWWmxs5+wr+TMC6fGqOE7DcISX
YsDyd31o3W3K4/KhWIoP0EcKVUMG0oF6v+v8CaLhet1SPORsV7z6bvASDjMzQgQ0
d6FbSfUC0IQISXxCHPKQaRDvVyEZD/gWFFpJsKhIj+p908HawltwtRBwwiBXnkx4
s7Hr3EXowNQ4DgDLONqQ25boM2msTRi2KmuEYNW44/KoM2Ml+Wp8EOp95WdPWTRD
CYeIqiBmli+BSbFPm9DPVxClcedwrb4z3wjhpfnSFr7V3y0XzijStekk3UxLWHuy
z+vT4wRpOVzepzJvLdG6XG+duFAAiDJrx3UOD41uPvfOLqWWrPKCPVI2oyrCgmMv
yluRJSo8VnWAhjfehRVl/H/eGsfbeKw2Kaf8yaTlSiA6C419+3YVjyEfbhw=
-----END CERTIFICATE-----
